target datalayout = "e-m:e-p270:32:32-p271:32:32-p272:64:64-i64:64-i128:128-f80:128-n8:16:32:64-S128"
target triple = "x86_64-pc-linux-gnu"

%struct._typeobject = type { %struct.PyVarObject, ptr, i64, i64, ptr, i64, ptr, ptr, ptr, ptr, ptr, ptr, ptr, ptr, ptr, ptr, ptr, ptr, ptr, i64, ptr, ptr, ptr, ptr, i64, ptr, ptr, ptr, ptr, ptr, ptr, ptr, ptr, ptr, i64, ptr, ptr, ptr, ptr, ptr, ptr, ptr, ptr, ptr, ptr, ptr, i32, ptr, ptr, i8, i16 }
%struct.PyVarObject = type { %struct._object, i64 }
%struct._object = type { %union.anon, ptr }
%union.anon = type { i64 }
%struct.PyDescrObject = type { %struct._object, ptr, ptr, ptr }
%struct.wrapperbase = type { ptr, i32, ptr, ptr, ptr, i32, ptr }
%struct.PyWrapperDescrObject = type { %struct.PyDescrObject, ptr, ptr }
%struct.wrapperobject = type { %struct._object, ptr, ptr }
%struct.PyDictObject = type { %struct._object, i64, i64, ptr, ptr }

@PyExc_TypeError = external global ptr, align 8
@.str.39 = private unnamed_addr constant [40 x i8] c"wrapper %s() takes no keyword arguments\00", align 1

; Function Attrs: inlinehint nounwind uwtable
define internal i64 @PyDict_GET_SIZE(ptr noundef %0) #3 {
  %2 = alloca ptr, align 8
  %3 = alloca ptr, align 8
  store ptr %0, ptr %2, align 8, !tbaa !4
  call void @llvm.lifetime.start.p0(i64 8, ptr %3) #6
  %4 = load ptr, ptr %2, align 8, !tbaa !4
  store ptr %4, ptr %3, align 8, !tbaa !9
  %5 = load ptr, ptr %3, align 8, !tbaa !9
  %6 = getelementptr inbounds nuw %struct.PyDictObject, ptr %5, i32 0, i32 1
  %7 = load i64, ptr %6, align 8, !tbaa !167
  call void @llvm.lifetime.end.p0(i64 8, ptr %3) #6
  ret i64 %7
}

; Function Attrs: inlinehint nounwind uwtable
define internal i32 @PyType_HasFeature(ptr noundef %0, i64 noundef %1) #3 {
  %3 = alloca ptr, align 8
  %4 = alloca i64, align 8
  %5 = alloca i64, align 8
  store ptr %0, ptr %3, align 8, !tbaa !33
  store i64 %1, ptr %4, align 8, !tbaa !32
  call void @llvm.lifetime.start.p0(i64 8, ptr %5) #6
  %6 = load ptr, ptr %3, align 8, !tbaa !33
  %7 = getelementptr inbounds nuw %struct._typeobject, ptr %6, i32 0, i32 19
  %8 = load i64, ptr %7, align 8, !tbaa !160
  store i64 %8, ptr %5, align 8, !tbaa !32
  %9 = load i64, ptr %5, align 8, !tbaa !32
  %10 = load i64, ptr %4, align 8, !tbaa !32
  %11 = and i64 %9, %10
  %12 = icmp ne i64 %11, 0
  %13 = zext i1 %12 to i32
  call void @llvm.lifetime.end.p0(i64 8, ptr %5) #6
  ret i32 %13
}

; Function Attrs: inlinehint nounwind uwtable
define internal ptr @_Py_TYPE(ptr noundef %0) #3 {
  %2 = alloca ptr, align 8
  store ptr %0, ptr %2, align 8, !tbaa !4
  %3 = load ptr, ptr %2, align 8, !tbaa !4
  %4 = getelementptr inbounds nuw %struct._object, ptr %3, i32 0, i32 1
  %5 = load ptr, ptr %4, align 8, !tbaa !64
  ret ptr %5
}

; Function Attrs: inlinehint nounwind uwtable
define internal ptr @wrapperdescr_raw_call(ptr noundef %0, ptr noundef %1, ptr noundef %2, ptr noundef %3) #3 {
  %5 = alloca ptr, align 8
  %6 = alloca ptr, align 8
  %7 = alloca ptr, align 8
  %8 = alloca ptr, align 8
  %9 = alloca ptr, align 8
  %10 = alloca ptr, align 8
  %11 = alloca ptr, align 8
  %12 = alloca i32, align 4
  store ptr %0, ptr %6, align 8, !tbaa !9
  store ptr %1, ptr %7, align 8, !tbaa !4
  store ptr %2, ptr %8, align 8, !tbaa !4
  store ptr %3, ptr %9, align 8, !tbaa !4
  call void @llvm.lifetime.start.p0(i64 8, ptr %10) #6
  %13 = load ptr, ptr %6, align 8, !tbaa !9
  %14 = getelementptr inbounds nuw %struct.PyWrapperDescrObject, ptr %13, i32 0, i32 1
  %15 = load ptr, ptr %14, align 8, !tbaa !60
  %16 = getelementptr inbounds nuw %struct.wrapperbase, ptr %15, i32 0, i32 3
  %17 = load ptr, ptr %16, align 8, !tbaa !165
  store ptr %17, ptr %10, align 8, !tbaa !9
  %18 = load ptr, ptr %6, align 8, !tbaa !9
  %19 = getelementptr inbounds nuw %struct.PyWrapperDescrObject, ptr %18, i32 0, i32 1
  %20 = load ptr, ptr %19, align 8, !tbaa !60
  %21 = getelementptr inbounds nuw %struct.wrapperbase, ptr %20, i32 0, i32 5
  %22 = load i32, ptr %21, align 8, !tbaa !166
  %23 = and i32 %22, 1
  %24 = icmp ne i32 %23, 0
  br i1 %24, label %25, label %35

25:                                               ; preds = %4
  call void @llvm.lifetime.start.p0(i64 8, ptr %11) #6
  %26 = load ptr, ptr %10, align 8, !tbaa !9
  store ptr %26, ptr %11, align 8, !tbaa !9
  %27 = load ptr, ptr %11, align 8, !tbaa !9
  %28 = load ptr, ptr %7, align 8, !tbaa !4
  %29 = load ptr, ptr %8, align 8, !tbaa !4
  %30 = load ptr, ptr %6, align 8, !tbaa !9
  %31 = getelementptr inbounds nuw %struct.PyWrapperDescrObject, ptr %30, i32 0, i32 2
  %32 = load ptr, ptr %31, align 8, !tbaa !62
  %33 = load ptr, ptr %9, align 8, !tbaa !4
  %34 = call ptr %27(ptr noundef %28, ptr noundef %29, ptr noundef %32, ptr noundef %33)
  store ptr %34, ptr %5, align 8
  store i32 1, ptr %12, align 4
  call void @llvm.lifetime.end.p0(i64 8, ptr %11) #6
  br label %63

35:                                               ; preds = %4
  %36 = load ptr, ptr %9, align 8, !tbaa !4
  %37 = icmp ne ptr %36, null
  br i1 %37, label %38, label %55

38:                                               ; preds = %35
  %39 = load ptr, ptr %9, align 8, !tbaa !4
  %40 = call ptr @_Py_TYPE(ptr noundef %39)
  %41 = call i32 @PyType_HasFeature(ptr noundef %40, i64 noundef 536870912)
  %42 = icmp ne i32 %41, 0
  br i1 %42, label %43, label %47

43:                                               ; preds = %38
  %44 = load ptr, ptr %9, align 8, !tbaa !4
  %45 = call i64 @PyDict_GET_SIZE(ptr noundef %44)
  %46 = icmp ne i64 %45, 0
  br i1 %46, label %47, label %55

47:                                               ; preds = %43, %38
  %48 = load ptr, ptr @PyExc_TypeError, align 8, !tbaa !4
  %49 = load ptr, ptr %6, align 8, !tbaa !9
  %50 = getelementptr inbounds nuw %struct.PyWrapperDescrObject, ptr %49, i32 0, i32 1
  %51 = load ptr, ptr %50, align 8, !tbaa !60
  %52 = getelementptr inbounds nuw %struct.wrapperbase, ptr %51, i32 0, i32 0
  %53 = load ptr, ptr %52, align 8, !tbaa !58
  %54 = call ptr (ptr, ptr, ...) @PyErr_Format(ptr noundef %48, ptr noundef @.str.39, ptr noundef %53)
  store ptr null, ptr %5, align 8
  store i32 1, ptr %12, align 4
  br label %63

55:                                               ; preds = %43, %35
  %56 = load ptr, ptr %10, align 8, !tbaa !9
  %57 = load ptr, ptr %7, align 8, !tbaa !4
  %58 = load ptr, ptr %8, align 8, !tbaa !4
  %59 = load ptr, ptr %6, align 8, !tbaa !9
  %60 = getelementptr inbounds nuw %struct.PyWrapperDescrObject, ptr %59, i32 0, i32 2
  %61 = load ptr, ptr %60, align 8, !tbaa !62
  %62 = call ptr %56(ptr noundef %57, ptr noundef %58, ptr noundef %61)
  store ptr %62, ptr %5, align 8
  store i32 1, ptr %12, align 4
  br label %63

63:                                               ; preds = %55, %47, %25
  call void @llvm.lifetime.end.p0(i64 8, ptr %10) #6
  %64 = load ptr, ptr %5, align 8
  ret ptr %64
}

; Function Attrs: nounwind uwtable
define internal ptr @wrapper_call(ptr noundef %0, ptr noundef %1, ptr noundef %2) #0 {
  %4 = alloca ptr, align 8
  %5 = alloca ptr, align 8
  %6 = alloca ptr, align 8
  %7 = alloca ptr, align 8
  store ptr %0, ptr %4, align 8, !tbaa !4
  store ptr %1, ptr %5, align 8, !tbaa !4
  store ptr %2, ptr %6, align 8, !tbaa !4
  call void @llvm.lifetime.start.p0(i64 8, ptr %7) #6
  %8 = load ptr, ptr %4, align 8, !tbaa !4
  store ptr %8, ptr %7, align 8, !tbaa !9
  %9 = load ptr, ptr %7, align 8, !tbaa !9
  %10 = getelementptr inbounds nuw %struct.wrapperobject, ptr %9, i32 0, i32 1
  %11 = load ptr, ptr %10, align 8, !tbaa !148
  %12 = load ptr, ptr %7, align 8, !tbaa !9
  %13 = getelementptr inbounds nuw %struct.wrapperobject, ptr %12, i32 0, i32 2
  %14 = load ptr, ptr %13, align 8, !tbaa !150
  %15 = load ptr, ptr %5, align 8, !tbaa !4
  %16 = load ptr, ptr %6, align 8, !tbaa !4
  %17 = call ptr @wrapperdescr_raw_call(ptr noundef %11, ptr noundef %14, ptr noundef %15, ptr noundef %16)
  call void @llvm.lifetime.end.p0(i64 8, ptr %7) #6
  ret ptr %17
}