; Function Attrs: nounwind uwtable
define internal ptr @wrapper_call(ptr noundef readonly captures(none) %0, ptr noundef %1, ptr noundef %2) #0 {
  %4 = getelementptr inbounds nuw i8, ptr %0, i64 16
  %5 = load ptr, ptr %4, align 8, !tbaa !60
  %6 = getelementptr inbounds nuw i8, ptr %0, i64 24
  %7 = load ptr, ptr %6, align 8, !tbaa !62
  %8 = getelementptr inbounds nuw i8, ptr %5, i64 40
  %9 = load ptr, ptr %8, align 8, !tbaa !48
  %10 = getelementptr inbounds nuw i8, ptr %9, i64 24
  %11 = load ptr, ptr %10, align 8, !tbaa !51
  %12 = getelementptr inbounds nuw i8, ptr %9, i64 40
  %13 = load i32, ptr %12, align 8, !tbaa !53
  %14 = and i32 %13, 1
  %.not.i = icmp eq i32 %14, 0
  br i1 %.not.i, label %19, label %15

15:                                               ; preds = %3
  %16 = getelementptr inbounds nuw i8, ptr %5, i64 48
  %17 = load ptr, ptr %16, align 8, !tbaa !54
  %18 = tail call ptr %11(ptr noundef %7, ptr noundef %1, ptr noundef %17, ptr noundef %2) #9
  br label %wrapperdescr_raw_call.exit

19:                                               ; preds = %3
  %.not18.i = icmp eq ptr %2, null
  br i1 %.not18.i, label %30, label %20

20:                                               ; preds = %19
  %21 = getelementptr i8, ptr %2, i64 8
  %.val.i = load ptr, ptr %21, align 8, !tbaa !19
  %22 = getelementptr i8, ptr %.val.i, i64 168
  %.val21.i = load i64, ptr %22, align 8, !tbaa !20
  %23 = and i64 %.val21.i, 536870912
  %.not19.i = icmp eq i64 %23, 0
  br i1 %.not19.i, label %26, label %24

24:                                               ; preds = %20
  %25 = getelementptr i8, ptr %2, i64 16
  %.val22.i = load i64, ptr %25, align 8, !tbaa !55
  %.not20.i = icmp eq i64 %.val22.i, 0
  br i1 %.not20.i, label %30, label %26

26:                                               ; preds = %24, %20
  %27 = load ptr, ptr @PyExc_TypeError, align 8, !tbaa !30
  %28 = load ptr, ptr %9, align 8, !tbaa !59
  %29 = tail call ptr (ptr, ptr, ...) @PyErr_Format(ptr noundef %27, ptr noundef nonnull @.str.39, ptr noundef %28) #9
  br label %wrapperdescr_raw_call.exit

30:                                               ; preds = %24, %19
  %31 = getelementptr inbounds nuw i8, ptr %5, i64 48
  %32 = load ptr, ptr %31, align 8, !tbaa !54
  %33 = tail call ptr %11(ptr noundef %7, ptr noundef %1, ptr noundef %32) #9
  br label %wrapperdescr_raw_call.exit

wrapperdescr_raw_call.exit:                       ; preds = %15, %26, %30
  %.0.i = phi ptr [ %18, %15 ], [ null, %26 ], [ %33, %30 ]
  ret ptr %.0.i
}